; Function Attrs: mustprogress nounwind uwtable
define hidden void @_ZN6hermes3hbc7HBCISel20generateTryStartInstEPNS_12TryStartInstEPNS_10BasicBlockE(ptr noundef nonnull align 8 dereferenceable(392) %this, ptr noundef nonnull %Inst, ptr noundef readnone %next) local_unnamed_addr #0 align 2 {
entry:
  %call.i = tail call noundef ptr @_ZNK6hermes11Instruction10getOperandEj(ptr noundef nonnull align 8 dereferenceable(132) %Inst, i32 noundef 1) #19
  %0 = icmp eq ptr %call.i, null
  %sub.ptr.i.i.i = getelementptr inbounds i8, ptr %call.i, i64 -16
  %1 = select i1 %0, ptr null, ptr %sub.ptr.i.i.i
  %cmp = icmp eq ptr %1, %next
  br i1 %cmp, label %return, label %if.end

if.end:                                           ; preds = %entry
  %BCFGen_ = getelementptr inbounds i8, ptr %this, i64 8
  %2 = load ptr, ptr %BCFGen_, align 8
  %call2 = tail call noundef i32 @_ZN6hermes3hbc28BytecodeInstructionGenerator11emitJmpLongEl(ptr noundef nonnull align 8 dereferenceable(25) %2, i64 noundef 0)
  %relocations_.i = getelementptr inbounds i8, ptr %this, i64 88
  %Size.i.i.i = getelementptr inbounds i8, ptr %this, i64 96
  %3 = load i32, ptr %Size.i.i.i, align 8
  %Capacity.i.i.i = getelementptr inbounds i8, ptr %this, i64 100
  %4 = load i32, ptr %Capacity.i.i.i, align 4
  %cmp.not.i.i = icmp ult i32 %3, %4
  br i1 %cmp.not.i.i, label %_ZN6hermes3hbc7HBCISel16registerLongJumpEjPNS_10BasicBlockE.exit, label %if.then.i.i

if.then.i.i:                                      ; preds = %if.end
  %add.ptr.i.i.i.i.i = getelementptr inbounds i8, ptr %this, i64 104
  tail call void @_ZN4llvh15SmallVectorBase8grow_podEPvmm(ptr noundef nonnull align 8 dereferenceable(16) %relocations_.i, ptr noundef nonnull %add.ptr.i.i.i.i.i, i64 noundef 0, i64 noundef 16) #19
  %.pre.i.i = load i32, ptr %Size.i.i.i, align 8
  br label %_ZN6hermes3hbc7HBCISel16registerLongJumpEjPNS_10BasicBlockE.exit

_ZN6hermes3hbc7HBCISel16registerLongJumpEjPNS_10BasicBlockE.exit: ; preds = %if.end, %if.then.i.i
  %5 = phi i32 [ %.pre.i.i, %if.then.i.i ], [ %3, %if.end ]
  %add.ptr.i = getelementptr inbounds i8, ptr %1, i64 16
  %spec.select.i = select i1 %0, ptr null, ptr %add.ptr.i
  %6 = load ptr, ptr %relocations_.i, align 8
  %conv.i3.i.i = zext i32 %5 to i64
  %add.ptr.i.i.i = getelementptr inbounds %"struct.hermes::hbc::HBCISel::Relocation", ptr %6, i64 %conv.i3.i.i
  store i32 %call2, ptr %add.ptr.i.i.i, align 1
  %ref.tmp.sroa.2.0.add.ptr.i.i.sroa_idx.i = getelementptr inbounds i8, ptr %add.ptr.i.i.i, i64 4
  store i32 1, ptr %ref.tmp.sroa.2.0.add.ptr.i.i.sroa_idx.i, align 1
  %ref.tmp.sroa.3.0.add.ptr.i.i.sroa_idx.i = getelementptr inbounds i8, ptr %add.ptr.i.i.i, i64 8
  store ptr %spec.select.i, ptr %ref.tmp.sroa.3.0.add.ptr.i.i.sroa_idx.i, align 1
  %7 = load i32, ptr %Size.i.i.i, align 8
  %add.i.i = add i32 %7, 1
  store i32 %add.i.i, ptr %Size.i.i.i, align 8
  br label %return

return:                                           ; preds = %entry, %_ZN6hermes3hbc7HBCISel16registerLongJumpEjPNS_10BasicBlockE.exit
  ret void
}